target datalayout = "e-m:e-p270:32:32-p271:32:32-p272:64:64-i64:64-i128:128-f80:128-n8:16:32:64-S128"
target triple = "x86_64-pc-linux-gnu"

%struct.slurm_conf_t = type { i64, ptr, i16, ptr, ptr, ptr, ptr, ptr, i16, ptr, ptr, ptr, ptr, ptr, ptr, ptr, i16, ptr, ptr, ptr, ptr, i16, ptr, ptr, ptr, i64, ptr, ptr, ptr, ptr, i16, ptr, ptr, i16, i32, ptr, i32, ptr, i32, i32, ptr, ptr, i64, i64, ptr, i16, i16, ptr, i32, i32, ptr, i32, ptr, i32, i16, i16, i16, ptr, i16, i16, ptr, ptr, i32, i16, i16, ptr, i32, i16, ptr, ptr, ptr, ptr, i16, ptr, ptr, ptr, ptr, i32, ptr, ptr, ptr, ptr, i16, i16, ptr, i32, i32, i32, i16, i16, ptr, ptr, i16, ptr, ptr, i32, i32, i32, i32, i32, i64, i32, i32, i16, ptr, ptr, i32, ptr, ptr, ptr, i16, i32, ptr, ptr, i16, ptr, ptr, i32, i16, ptr, ptr, ptr, ptr, i32, i32, i16, i16, i32, ptr, i16, ptr, i32, i32, i32, i32, i32, i32, ptr, i16, ptr, ptr, i32, i16, ptr, i32, i16, i16, ptr, ptr, ptr, i16, ptr, ptr, ptr, ptr, i16, i16, ptr, i16, ptr, i16, ptr, i16, ptr, i16, ptr, ptr, ptr, ptr, i16, ptr, ptr, ptr, i32, ptr, i32, ptr, ptr, i16, ptr, ptr, i32, i16, ptr, ptr, i16, i16, ptr, i16, ptr, ptr, ptr, i32, ptr, i16, i16, ptr, ptr, ptr, ptr, ptr, ptr, ptr, ptr, i16, i32, i16, ptr, ptr, ptr, ptr, i32, ptr, ptr, ptr, i16, ptr, ptr, ptr, i16, ptr, i16, ptr, i16, i16, ptr }
%struct.iovec = type { ptr, i64 }

@slurm_conf = external global %struct.slurm_conf_t, align 8

; Function Attrs: inlinehint nounwind uwtable
define internal i32 @__bswap_32(i32 noundef %0) #2 {
  %2 = alloca i32, align 4
  store i32 %0, ptr %2, align 4
  %3 = load i32, ptr %2, align 4
  %4 = and i32 %3, -16777216
  %5 = lshr i32 %4, 24
  %6 = load i32, ptr %2, align 4
  %7 = and i32 %6, 16711680
  %8 = lshr i32 %7, 8
  %9 = or i32 %5, %8
  %10 = load i32, ptr %2, align 4
  %11 = and i32 %10, 65280
  %12 = shl i32 %11, 8
  %13 = or i32 %9, %12
  %14 = load i32, ptr %2, align 4
  %15 = and i32 %14, 255
  %16 = shl i32 %15, 24
  %17 = or i32 %13, %16
  ret i32 %17
}

; Function Attrs: nounwind uwtable
define dso_local i64 @slurm_msg_sendto(i32 noundef %0, ptr noundef %1, i64 noundef %2) #0 {
  %4 = alloca i64, align 8
  %5 = alloca i32, align 4
  %6 = alloca ptr, align 8
  %7 = alloca i64, align 8
  %8 = alloca [2 x %struct.iovec], align 16
  %9 = alloca i32, align 4
  %10 = alloca i32, align 4
  %11 = alloca ptr, align 8
  %12 = alloca i32, align 4
  %13 = alloca i32, align 4
  store i32 %0, ptr %5, align 4
  store ptr %1, ptr %6, align 8
  store i64 %2, ptr %7, align 8
  call void @llvm.lifetime.start.p0(i64 32, ptr %8) #9
  call void @llvm.lifetime.start.p0(i64 4, ptr %9) #9
  call void @llvm.lifetime.start.p0(i64 4, ptr %10) #9
  call void @llvm.lifetime.start.p0(i64 8, ptr %11) #9
  call void @llvm.lifetime.start.p0(i64 4, ptr %12) #9
  %14 = load i16, ptr getelementptr inbounds nuw (%struct.slurm_conf_t, ptr @slurm_conf, i32 0, i32 110), align 8
  %15 = zext i16 %14 to i32
  %16 = mul nsw i32 %15, 1000
  store i32 %16, ptr %12, align 4
  %17 = call ptr @xsignal(i32 noundef 13, ptr noundef inttoptr (i64 1 to ptr))
  store ptr %17, ptr %11, align 8
  %18 = getelementptr inbounds [2 x %struct.iovec], ptr %8, i64 0, i64 0
  %19 = getelementptr inbounds nuw %struct.iovec, ptr %18, i32 0, i32 0
  store ptr %9, ptr %19, align 16
  %20 = getelementptr inbounds [2 x %struct.iovec], ptr %8, i64 0, i64 0
  %21 = getelementptr inbounds nuw %struct.iovec, ptr %20, i32 0, i32 1
  store i64 4, ptr %21, align 8
  %22 = load ptr, ptr %6, align 8
  %23 = getelementptr inbounds [2 x %struct.iovec], ptr %8, i64 0, i64 1
  %24 = getelementptr inbounds nuw %struct.iovec, ptr %23, i32 0, i32 0
  store ptr %22, ptr %24, align 16
  %25 = load i64, ptr %7, align 8
  %26 = getelementptr inbounds [2 x %struct.iovec], ptr %8, i64 0, i64 1
  %27 = getelementptr inbounds nuw %struct.iovec, ptr %26, i32 0, i32 1
  store i64 %25, ptr %27, align 8
  %28 = getelementptr inbounds [2 x %struct.iovec], ptr %8, i64 0, i64 1
  %29 = getelementptr inbounds nuw %struct.iovec, ptr %28, i32 0, i32 1
  %30 = load i64, ptr %29, align 8
  %31 = trunc i64 %30 to i32
  %32 = call i32 @__bswap_32(i32 noundef %31)
  store i32 %32, ptr %9, align 4
  %33 = load i32, ptr %5, align 4
  %34 = getelementptr inbounds [2 x %struct.iovec], ptr %8, i64 0, i64 0
  %35 = load i32, ptr %12, align 4
  %36 = call i32 @_writev_timeout(i32 noundef %33, ptr noundef %34, i32 noundef 2, i32 noundef %35)
  store i32 %36, ptr %10, align 4
  %37 = load ptr, ptr %11, align 8
  %38 = call ptr @xsignal(i32 noundef 13, ptr noundef %37)
  %39 = load i32, ptr %10, align 4
  %40 = icmp slt i32 %39, 0
  br i1 %40, label %41, label %42

41:                                               ; preds = %3
  store i64 -1, ptr %4, align 8
  store i32 1, ptr %13, align 4
  br label %44

42:                                               ; preds = %3
  %43 = load i64, ptr %7, align 8
  store i64 %43, ptr %4, align 8
  store i32 1, ptr %13, align 4
  br label %44

44:                                               ; preds = %42, %41
  call void @llvm.lifetime.end.p0(i64 4, ptr %12) #9
  call void @llvm.lifetime.end.p0(i64 8, ptr %11) #9
  call void @llvm.lifetime.end.p0(i64 4, ptr %10) #9
  call void @llvm.lifetime.end.p0(i64 4, ptr %9) #9
  call void @llvm.lifetime.end.p0(i64 32, ptr %8) #9
  %45 = load i64, ptr %4, align 8
  ret i64 %45
}