; Function Attrs: nounwind uwtable
define dso_local i64 @slurm_msg_sendto(i32 noundef %0, ptr noundef %1, i64 noundef %2) local_unnamed_addr #0 {
  %4 = alloca [2 x %struct.iovec], align 16
  %5 = alloca i32, align 4
  call void @llvm.lifetime.start.p0(i64 32, ptr nonnull %4) #11
  call void @llvm.lifetime.start.p0(i64 4, ptr nonnull %5) #11
  %6 = load i16, ptr getelementptr inbounds nuw (i8, ptr @slurm_conf, i64 744), align 8
  %7 = zext i16 %6 to i32
  %8 = mul nuw nsw i32 %7, 1000
  %9 = tail call ptr @xsignal(i32 noundef 13, ptr noundef nonnull inttoptr (i64 1 to ptr)) #11
  store ptr %5, ptr %4, align 16
  %10 = getelementptr inbounds nuw i8, ptr %4, i64 8
  store i64 4, ptr %10, align 8
  %11 = getelementptr inbounds nuw i8, ptr %4, i64 16
  store ptr %1, ptr %11, align 16
  %12 = getelementptr inbounds nuw i8, ptr %4, i64 24
  store i64 %2, ptr %12, align 8
  %13 = trunc i64 %2 to i32
  %14 = call noundef i32 @llvm.bswap.i32(i32 %13)
  store i32 %14, ptr %5, align 4
  %15 = call fastcc i32 @_writev_timeout(i32 noundef %0, ptr noundef %4, i32 noundef 2, i32 noundef %8)
  %16 = call ptr @xsignal(i32 noundef 13, ptr noundef %9) #11
  %17 = icmp slt i32 %15, 0
  %. = select i1 %17, i64 -1, i64 %2
  call void @llvm.lifetime.end.p0(i64 4, ptr nonnull %5) #11
  call void @llvm.lifetime.end.p0(i64 32, ptr nonnull %4) #11
  ret i64 %.
}